ccopy_reg
_reconstructor
p1
(cpandas.core.frame
DataFrame
p2
c__builtin__
object
p3
NtRp4
g1
(cpandas.core.internals
BlockManager
p5
g3
NtRp6
((lp7
cnumpy.core.multiarray
_reconstruct
p8
(cpandas.core.index
Index
p9
(I0
tS'b'
tRp10
((I1
(I3
tcnumpy
dtype
p11
(S'O8'
I0
I1
tRp12
(I3
S'|'
NNNI-1
I-1
I63
tbI00
(lp13
S'Hybrid Error Rates'
p14
aS'Logit Error Rates'
p15
aS'Tree Error Rates'
p16
at(Nttbag8
(g9
(I0
tS'b'
tRp17
((I1
(I3
tg12
I00
(lp18
S'Total'
p19
aS'Class 0'
p20
aS'Class 1'
p21
at(Nttba(lp22
g8
(cnumpy
ndarray
p23
(I0
tS'b'
tRp24
(I1
(I3
I3
tg11
(S'f8'
I0
I1
tRp25
(I3
S'<'
NNNI-1
I-1
I0
tbI00
S'tdqRj\x9d\xcc?\xa5\x8a\xc8\xaf\xb9\xb5\xad?8\xbd\xe9Moz\xed?_E\x08>Q\xe1\xc9?\xebn\xa0\x8c\x94\xc4\x97?\xeaMoz\xd3\x9b\xee?\xf8D\x85g\x08\xbf\xc8?a\x1d\xd2\x89s|r?z\xd3\x9b\xde\xf4\xa6\xef?'
tba(lp26
g8
(g9
(I0
tS'b'
tRp27
((I1
(I3
tg12
I00
(lp28
g14
ag15
ag16
at(Nttbatbb.