ccopy_reg
_reconstructor
p1
(cpandas.core.frame
DataFrame
p2
c__builtin__
object
p3
NtRp4
g1
(cpandas.core.internals
BlockManager
p5
g3
NtRp6
((lp7
cnumpy.core.multiarray
_reconstruct
p8
(cpandas.core.index
Index
p9
(I0
tS'b'
tRp10
((I1
(I3
tcnumpy
dtype
p11
(S'O8'
I0
I1
tRp12
(I3
S'|'
NNNI-1
I-1
I63
tbI00
(lp13
S'Hybrid'
p14
aS'Logit'
p15
aS'Tree'
p16
at(Nttbag8
(g9
(I0
tS'b'
tRp17
((I1
(I5
tg12
I00
(lp18
S'Total Error Rate'
p19
aS'Class 0 Error Rate'
p20
aS'Class 1 Error Rate'
p21
aS'Precision'
p22
aS'Recall'
p23
at(Nttba(lp24
g8
(cnumpy
ndarray
p25
(I0
tS'b'
tRp26
(I1
(I3
I5
tg11
(S'f8'
I0
I1
tRp27
(I3
S'<'
NNNI-1
I-1
I0
tbI00
S"+F\x0e\xeb\xe2%\xcc?C\xf6\x14o\xb1c\xac?\xd3\x9b\xde\xf4\xa67\xed?\r'u_\x1e[\xd1?d!\x0bY\xc8B\xb6?\x1cU~3\x82\xd0\xcb?&F9\x0b\x84 \xa5?\x0bY\xc8B\x16\xb2\xee?\x9c0\xbf\xab\xc5M\xc8?Noz\xd3\x9b\xde\xa4?\x8c\x18\xb8ds\xe1\xca?\xb5\xd9\x97\x18\xe5,\xa0?-d!\x0bY\xc8\xee?\x1c\xc7q\x1c\xc7q\xcc?8\xbd\xe9Moz\xa3?"
tba(lp28
g8
(g9
(I0
tS'b'
tRp29
((I1
(I3
tg12
I00
(lp30
g14
ag15
ag16
at(Nttbatbb.